target datalayout = "e-m:e-p270:32:32-p271:32:32-p272:64:64-i64:64-i128:128-f80:128-n8:16:32:64-S128"
target triple = "x86_64-pc-linux-gnu"

%struct.AVFilterContext = type { ptr, ptr, ptr, ptr, ptr, i32, ptr, ptr, i32, ptr, ptr, i32, i32, ptr, ptr, ptr, ptr, i32, ptr, i32, i32 }
%struct.BlackDetectContext = type { ptr, double, i64, i64, i64, i64, i32, double, double, i32, i32, %struct.AVRational, i32, i32, ptr }
%struct.AVRational = type { i32, i32 }

@.str.8 = private unnamed_addr constant [47 x i8] c"black_start:%s black_end:%s black_duration:%s\0A\00", align 1

; Function Attrs: inlinehint nounwind uwtable
define internal ptr @av_ts_make_time_string(ptr noundef %0, i64 noundef %1, ptr noundef %2) #3 {
  %4 = alloca ptr, align 8
  %5 = alloca i64, align 8
  %6 = alloca ptr, align 8
  store ptr %0, ptr %4, align 8, !tbaa !82
  store i64 %1, ptr %5, align 8, !tbaa !92
  store ptr %2, ptr %6, align 8, !tbaa !93
  %7 = load ptr, ptr %4, align 8, !tbaa !82
  %8 = load i64, ptr %5, align 8, !tbaa !92
  %9 = load ptr, ptr %6, align 8, !tbaa !93
  %10 = load i64, ptr %9, align 4
  %11 = call ptr @av_ts_make_time_string2(ptr noundef %7, i64 noundef %8, i64 %10)
  ret ptr %11
}

; Function Attrs: nounwind uwtable
define internal void @check_black_end(ptr noundef %0) #1 {
  %2 = alloca ptr, align 8
  %3 = alloca ptr, align 8
  %4 = alloca [32 x i8], align 1
  %5 = alloca [32 x i8], align 1
  %6 = alloca [32 x i8], align 1
  store ptr %0, ptr %2, align 8, !tbaa !4
  call void @llvm.lifetime.start.p0(i64 8, ptr %3) #10
  %7 = load ptr, ptr %2, align 8, !tbaa !4
  %8 = getelementptr inbounds nuw %struct.AVFilterContext, ptr %7, i32 0, i32 9
  %9 = load ptr, ptr %8, align 8, !tbaa !9
  store ptr %9, ptr %3, align 8, !tbaa !22
  %10 = load ptr, ptr %3, align 8, !tbaa !22
  %11 = getelementptr inbounds nuw %struct.BlackDetectContext, ptr %10, i32 0, i32 4
  %12 = load i64, ptr %11, align 8, !tbaa !31
  %13 = load ptr, ptr %3, align 8, !tbaa !22
  %14 = getelementptr inbounds nuw %struct.BlackDetectContext, ptr %13, i32 0, i32 3
  %15 = load i64, ptr %14, align 8, !tbaa !68
  %16 = sub nsw i64 %12, %15
  %17 = load ptr, ptr %3, align 8, !tbaa !22
  %18 = getelementptr inbounds nuw %struct.BlackDetectContext, ptr %17, i32 0, i32 2
  %19 = load i64, ptr %18, align 8, !tbaa !77
  %20 = icmp sge i64 %16, %19
  br i1 %20, label %21, label %48

21:                                               ; preds = %1
  %22 = load ptr, ptr %3, align 8, !tbaa !22
  call void @llvm.memset.p0.i64(ptr align 1 %4, i8 0, i64 32, i1 false)
  %23 = getelementptr inbounds [32 x i8], ptr %4, i64 0, i64 0
  %24 = load ptr, ptr %3, align 8, !tbaa !22
  %25 = getelementptr inbounds nuw %struct.BlackDetectContext, ptr %24, i32 0, i32 3
  %26 = load i64, ptr %25, align 8, !tbaa !68
  %27 = load ptr, ptr %3, align 8, !tbaa !22
  %28 = getelementptr inbounds nuw %struct.BlackDetectContext, ptr %27, i32 0, i32 11
  %29 = call ptr @av_ts_make_time_string(ptr noundef %23, i64 noundef %26, ptr noundef %28)
  call void @llvm.memset.p0.i64(ptr align 1 %5, i8 0, i64 32, i1 false)
  %30 = getelementptr inbounds [32 x i8], ptr %5, i64 0, i64 0
  %31 = load ptr, ptr %3, align 8, !tbaa !22
  %32 = getelementptr inbounds nuw %struct.BlackDetectContext, ptr %31, i32 0, i32 4
  %33 = load i64, ptr %32, align 8, !tbaa !31
  %34 = load ptr, ptr %3, align 8, !tbaa !22
  %35 = getelementptr inbounds nuw %struct.BlackDetectContext, ptr %34, i32 0, i32 11
  %36 = call ptr @av_ts_make_time_string(ptr noundef %30, i64 noundef %33, ptr noundef %35)
  call void @llvm.memset.p0.i64(ptr align 1 %6, i8 0, i64 32, i1 false)
  %37 = getelementptr inbounds [32 x i8], ptr %6, i64 0, i64 0
  %38 = load ptr, ptr %3, align 8, !tbaa !22
  %39 = getelementptr inbounds nuw %struct.BlackDetectContext, ptr %38, i32 0, i32 4
  %40 = load i64, ptr %39, align 8, !tbaa !31
  %41 = load ptr, ptr %3, align 8, !tbaa !22
  %42 = getelementptr inbounds nuw %struct.BlackDetectContext, ptr %41, i32 0, i32 3
  %43 = load i64, ptr %42, align 8, !tbaa !68
  %44 = sub nsw i64 %40, %43
  %45 = load ptr, ptr %3, align 8, !tbaa !22
  %46 = getelementptr inbounds nuw %struct.BlackDetectContext, ptr %45, i32 0, i32 11
  %47 = call ptr @av_ts_make_time_string(ptr noundef %37, i64 noundef %44, ptr noundef %46)
  call void (ptr, i32, ptr, ...) @av_log(ptr noundef %22, i32 noundef 32, ptr noundef @.str.8, ptr noundef %29, ptr noundef %36, ptr noundef %47)
  br label %48

48:                                               ; preds = %21, %1
  call void @llvm.lifetime.end.p0(i64 8, ptr %3) #10
  ret void
}