; Function Attrs: nounwind uwtable
define internal fastcc void @check_black_end(ptr %.72.val) unnamed_addr #1 {
  %1 = alloca [32 x i8], align 1
  %2 = alloca [32 x i8], align 1
  %3 = alloca [32 x i8], align 1
  %4 = getelementptr inbounds nuw i8, ptr %.72.val, i64 32
  %5 = load i64, ptr %4, align 8, !tbaa !27
  %6 = getelementptr inbounds nuw i8, ptr %.72.val, i64 24
  %7 = load i64, ptr %6, align 8, !tbaa !58
  %8 = sub nsw i64 %5, %7
  %9 = getelementptr inbounds nuw i8, ptr %.72.val, i64 16
  %10 = load i64, ptr %9, align 8, !tbaa !66
  %.not = icmp slt i64 %8, %10
  br i1 %.not, label %20, label %11

11:                                               ; preds = %0
  call void @llvm.memset.p0.i64(ptr noundef nonnull align 1 dereferenceable(32) %1, i8 0, i64 32, i1 false)
  %12 = getelementptr inbounds nuw i8, ptr %.72.val, i64 80
  %.val13 = load i64, ptr %12, align 4
  %13 = call ptr @av_ts_make_time_string2(ptr noundef nonnull %1, i64 noundef %7, i64 %.val13) #10
  call void @llvm.memset.p0.i64(ptr noundef nonnull align 1 dereferenceable(32) %2, i8 0, i64 32, i1 false)
  %14 = load i64, ptr %4, align 8, !tbaa !27
  %.val12 = load i64, ptr %12, align 4
  %15 = call ptr @av_ts_make_time_string2(ptr noundef nonnull %2, i64 noundef %14, i64 %.val12) #10
  call void @llvm.memset.p0.i64(ptr noundef nonnull align 1 dereferenceable(32) %3, i8 0, i64 32, i1 false)
  %16 = load i64, ptr %4, align 8, !tbaa !27
  %17 = load i64, ptr %6, align 8, !tbaa !58
  %18 = sub nsw i64 %16, %17
  %.val = load i64, ptr %12, align 4
  %19 = call ptr @av_ts_make_time_string2(ptr noundef nonnull %3, i64 noundef %18, i64 %.val) #10
  call void (ptr, i32, ptr, ...) @av_log(ptr noundef nonnull %.72.val, i32 noundef 32, ptr noundef nonnull @.str.8, ptr noundef %13, ptr noundef %15, ptr noundef %19) #10
  br label %20

20:                                               ; preds = %11, %0
  ret void
}